; Function Attrs: nounwind uwtable
define i64 @trigger_return_old(ptr noundef readonly captures(none) %0) local_unnamed_addr #1 {
  %2 = getelementptr inbounds nuw i8, ptr %0, i64 8
  %3 = load ptr, ptr %2, align 8
  %.not = icmp eq ptr %3, null
  br i1 %.not, label %7, label %4

4:                                                ; preds = %1
  %5 = load i32, ptr %3, align 4
  %6 = icmp eq i32 %5, 441
  br i1 %6, label %10, label %7

7:                                                ; preds = %4, %1
  %8 = tail call zeroext i1 @errstart_cold(i32 noundef 21, ptr noundef null) #19
  tail call void @llvm.assume(i1 %8)
  %9 = tail call i32 (ptr, ...) @errmsg_internal(ptr noundef nonnull @.str.5) #18
  tail call void @errfinish(ptr noundef nonnull @.str.3, i32 noundef 258, ptr noundef nonnull @__func__.trigger_return_old) #18
  unreachable

10:                                               ; preds = %4
  %11 = getelementptr inbounds nuw i8, ptr %3, i64 16
  %12 = load ptr, ptr %11, align 8
  %13 = ptrtoint ptr %12 to i64
  ret i64 %13
}